target datalayout = "e-m:e-p270:32:32-p271:32:32-p272:64:64-i64:64-i128:128-f80:128-n8:16:32:64-S128"
target triple = "x86_64-pc-linux-gnu"

@.str = private unnamed_addr constant [119 x i8] c"generated/home/dtcxzyw/WorkSpace/Projects/compilers/llvm-opt-benchmark/bench/lief/bench_build/mbed_src/library/pkcs7.c\00", align 1

; Function Attrs: inlinehint nounwind uwtable
define internal i32 @mbedtls_error_add(i32 noundef %0, i32 noundef %1, ptr noundef %2, i32 noundef %3) #6 {
  %5 = alloca i32, align 4
  %6 = alloca i32, align 4
  %7 = alloca ptr, align 8
  %8 = alloca i32, align 4
  store i32 %0, ptr %5, align 4, !tbaa !12
  store i32 %1, ptr %6, align 4, !tbaa !12
  store ptr %2, ptr %7, align 8, !tbaa !8
  store i32 %3, ptr %8, align 4, !tbaa !12
  %9 = load i32, ptr %5, align 4, !tbaa !12
  %10 = load i32, ptr %6, align 4, !tbaa !12
  %11 = add nsw i32 %9, %10
  ret i32 %11
}

; Function Attrs: nounwind uwtable
define internal i32 @pkcs7_get_certificates(ptr noundef %0, ptr noundef %1, ptr noundef %2) #0 {
  %4 = alloca i32, align 4
  %5 = alloca ptr, align 8
  %6 = alloca ptr, align 8
  %7 = alloca ptr, align 8
  %8 = alloca i32, align 4
  %9 = alloca i64, align 8
  %10 = alloca i64, align 8
  %11 = alloca ptr, align 8
  %12 = alloca ptr, align 8
  %13 = alloca ptr, align 8
  %14 = alloca i32, align 4
  store ptr %0, ptr %5, align 8, !tbaa !35
  store ptr %1, ptr %6, align 8, !tbaa !8
  store ptr %2, ptr %7, align 8, !tbaa !52
  call void @llvm.lifetime.start.p0(i64 4, ptr %8) #9
  store i32 -110, ptr %8, align 4, !tbaa !12
  call void @llvm.lifetime.start.p0(i64 8, ptr %9) #9
  store i64 0, ptr %9, align 8, !tbaa !10
  call void @llvm.lifetime.start.p0(i64 8, ptr %10) #9
  store i64 0, ptr %10, align 8, !tbaa !10
  call void @llvm.lifetime.start.p0(i64 8, ptr %11) #9
  call void @llvm.lifetime.start.p0(i64 8, ptr %12) #9
  call void @llvm.lifetime.start.p0(i64 8, ptr %13) #9
  %15 = load ptr, ptr %5, align 8, !tbaa !35
  %16 = load ptr, ptr %6, align 8, !tbaa !8
  %17 = call i32 @mbedtls_asn1_get_tag(ptr noundef %15, ptr noundef %16, ptr noundef %9, i32 noundef 160)
  store i32 %17, ptr %8, align 4, !tbaa !12
  %18 = load i32, ptr %8, align 4, !tbaa !12
  %19 = icmp eq i32 %18, -98
  br i1 %19, label %20, label %21

20:                                               ; preds = %3
  store i32 0, ptr %4, align 4
  store i32 1, ptr %14, align 4
  br label %61

21:                                               ; preds = %3
  %22 = load i32, ptr %8, align 4, !tbaa !12
  %23 = icmp ne i32 %22, 0
  br i1 %23, label %24, label %27

24:                                               ; preds = %21
  %25 = load i32, ptr %8, align 4, !tbaa !12
  %26 = call i32 @mbedtls_error_add(i32 noundef -21248, i32 noundef %25, ptr noundef @.str, i32 noundef 184)
  store i32 %26, ptr %4, align 4
  store i32 1, ptr %14, align 4
  br label %61

27:                                               ; preds = %21
  %28 = load ptr, ptr %5, align 8, !tbaa !35
  %29 = load ptr, ptr %28, align 8, !tbaa !8
  store ptr %29, ptr %13, align 8, !tbaa !8
  %30 = load ptr, ptr %5, align 8, !tbaa !35
  %31 = load ptr, ptr %30, align 8, !tbaa !8
  %32 = load i64, ptr %9, align 8, !tbaa !10
  %33 = getelementptr inbounds nuw i8, ptr %31, i64 %32
  store ptr %33, ptr %11, align 8, !tbaa !8
  %34 = load ptr, ptr %5, align 8, !tbaa !35
  %35 = load ptr, ptr %11, align 8, !tbaa !8
  %36 = call i32 @mbedtls_asn1_get_tag(ptr noundef %34, ptr noundef %35, ptr noundef %10, i32 noundef 48)
  store i32 %36, ptr %8, align 4, !tbaa !12
  %37 = load i32, ptr %8, align 4, !tbaa !12
  %38 = icmp ne i32 %37, 0
  br i1 %38, label %39, label %42

39:                                               ; preds = %27
  %40 = load i32, ptr %8, align 4, !tbaa !12
  %41 = call i32 @mbedtls_error_add(i32 noundef -21888, i32 noundef %40, ptr noundef @.str, i32 noundef 192)
  store i32 %41, ptr %4, align 4
  store i32 1, ptr %14, align 4
  br label %61

42:                                               ; preds = %27
  %43 = load ptr, ptr %5, align 8, !tbaa !35
  %44 = load ptr, ptr %43, align 8, !tbaa !8
  %45 = load i64, ptr %10, align 8, !tbaa !10
  %46 = getelementptr inbounds nuw i8, ptr %44, i64 %45
  store ptr %46, ptr %12, align 8, !tbaa !8
  %47 = load ptr, ptr %12, align 8, !tbaa !8
  %48 = load ptr, ptr %11, align 8, !tbaa !8
  %49 = icmp ne ptr %47, %48
  br i1 %49, label %50, label %51

50:                                               ; preds = %42
  store i32 -21376, ptr %4, align 4
  store i32 1, ptr %14, align 4
  br label %61

51:                                               ; preds = %42
  %52 = load ptr, ptr %7, align 8, !tbaa !52
  %53 = load ptr, ptr %13, align 8, !tbaa !8
  %54 = load i64, ptr %9, align 8, !tbaa !10
  %55 = call i32 @mbedtls_x509_crt_parse_der(ptr noundef %52, ptr noundef %53, i64 noundef %54)
  store i32 %55, ptr %8, align 4, !tbaa !12
  %56 = icmp slt i32 %55, 0
  br i1 %56, label %57, label %58

57:                                               ; preds = %51
  store i32 -21888, ptr %4, align 4
  store i32 1, ptr %14, align 4
  br label %61

58:                                               ; preds = %51
  %59 = load ptr, ptr %12, align 8, !tbaa !8
  %60 = load ptr, ptr %5, align 8, !tbaa !35
  store ptr %59, ptr %60, align 8, !tbaa !8
  store i32 1, ptr %4, align 4
  store i32 1, ptr %14, align 4
  br label %61

61:                                               ; preds = %58, %57, %50, %39, %24, %20
  call void @llvm.lifetime.end.p0(i64 8, ptr %13) #9
  call void @llvm.lifetime.end.p0(i64 8, ptr %12) #9
  call void @llvm.lifetime.end.p0(i64 8, ptr %11) #9
  call void @llvm.lifetime.end.p0(i64 8, ptr %10) #9
  call void @llvm.lifetime.end.p0(i64 8, ptr %9) #9
  call void @llvm.lifetime.end.p0(i64 4, ptr %8) #9
  %62 = load i32, ptr %4, align 4
  ret i32 %62
}