; Function Attrs: nounwind uwtable
define internal fastcc range(i32 -2147483648, 2147462400) i32 @pkcs7_get_certificates(ptr noundef nonnull %0, ptr noundef %1, ptr noundef nonnull %2) unnamed_addr #2 {
  %4 = alloca i64, align 8
  %5 = alloca i64, align 8
  call void @llvm.lifetime.start.p0(i64 8, ptr nonnull %4) #9
  store i64 0, ptr %4, align 8, !tbaa !3
  call void @llvm.lifetime.start.p0(i64 8, ptr nonnull %5) #9
  store i64 0, ptr %5, align 8, !tbaa !3
  %6 = call i32 @mbedtls_asn1_get_tag(ptr noundef nonnull %0, ptr noundef %1, ptr noundef nonnull %4, i32 noundef 160) #9
  switch i32 %6, label %7 [
    i32 -98, label %25
    i32 0, label %9
  ]

7:                                                ; preds = %3
  %8 = add nsw i32 %6, -21248
  br label %25

9:                                                ; preds = %3
  %10 = load ptr, ptr %0, align 8, !tbaa !7
  %11 = load i64, ptr %4, align 8, !tbaa !3
  %12 = getelementptr inbounds nuw i8, ptr %10, i64 %11
  %13 = call i32 @mbedtls_asn1_get_tag(ptr noundef nonnull %0, ptr noundef %12, ptr noundef nonnull %5, i32 noundef 48) #9
  %.not21 = icmp eq i32 %13, 0
  br i1 %.not21, label %16, label %14

14:                                               ; preds = %9
  %15 = add nsw i32 %13, -21888
  br label %25

16:                                               ; preds = %9
  %17 = load ptr, ptr %0, align 8, !tbaa !7
  %18 = load i64, ptr %5, align 8, !tbaa !3
  %19 = getelementptr inbounds nuw i8, ptr %17, i64 %18
  %.not22 = icmp eq ptr %19, %12
  br i1 %.not22, label %20, label %25

20:                                               ; preds = %16
  %21 = load i64, ptr %4, align 8, !tbaa !3
  %22 = call i32 @mbedtls_x509_crt_parse_der(ptr noundef nonnull %2, ptr noundef %10, i64 noundef %21) #9
  %23 = icmp slt i32 %22, 0
  br i1 %23, label %25, label %24

24:                                               ; preds = %20
  store ptr %19, ptr %0, align 8, !tbaa !7
  br label %25

25:                                               ; preds = %20, %16, %3, %24, %14, %7
  %.0 = phi i32 [ %8, %7 ], [ %15, %14 ], [ 1, %24 ], [ 0, %3 ], [ -21376, %16 ], [ -21888, %20 ]
  call void @llvm.lifetime.end.p0(i64 8, ptr nonnull %5) #9
  call void @llvm.lifetime.end.p0(i64 8, ptr nonnull %4) #9
  ret i32 %.0
}